; Function Attrs: nounwind sspstrong uwtable
define internal ptr @nogvl_recvmsg_func(ptr noundef readonly captures(none) %0) #0 {
  %2 = getelementptr inbounds nuw i8, ptr %0, i64 4
  %3 = load i32, ptr %2, align 4, !tbaa !79
  %4 = load i32, ptr %0, align 8, !tbaa !76
  %5 = getelementptr inbounds nuw i8, ptr %0, i64 8
  %6 = load ptr, ptr %5, align 8, !tbaa !78
  %7 = or i32 %3, 1073741824
  %8 = getelementptr inbounds nuw i8, ptr %6, i64 8
  %9 = load i32, ptr %8, align 8, !tbaa !38
  %10 = tail call i64 @recvmsg(i32 noundef %4, ptr noundef %6, i32 noundef %7) #10
  %.not.i = icmp eq i64 %10, -1
  br i1 %.not.i, label %rsock_recvmsg.exit, label %11

11:                                               ; preds = %1
  %12 = load i32, ptr %8, align 8, !tbaa !38
  %13 = icmp ult i32 %9, %12
  br i1 %13, label %14, label %rsock_recvmsg.exit

14:                                               ; preds = %11
  store i32 %9, ptr %8, align 8, !tbaa !38
  br label %rsock_recvmsg.exit

rsock_recvmsg.exit:                               ; preds = %1, %11, %14
  %15 = inttoptr i64 %10 to ptr
  ret ptr %15
}